; Function Attrs: mustprogress nofree norecurse nosync nounwind willreturn memory(argmem: readwrite) uwtable
define void @_ZN23grpc_plugin_credentialsC2E32grpc_metadata_credentials_plugin19grpc_security_level(ptr nocapture noundef nonnull writeonly align 8 dereferenceable(64) %this, ptr nocapture noundef readonly byval(%struct.grpc_metadata_credentials_plugin) align 8 %plugin, i32 noundef %min_security_level) unnamed_addr #10 align 2 personality ptr @__gxx_personality_v0 {
entry:
  %refs_.i.i = getelementptr inbounds i8, ptr %this, i64 8
  store i64 1, ptr %refs_.i.i, align 8
  %min_security_level_.i = getelementptr inbounds i8, ptr %this, i64 16
  store i32 %min_security_level, ptr %min_security_level_.i, align 8
  store ptr getelementptr inbounds ({ [9 x ptr] }, ptr @_ZTV23grpc_plugin_credentials, i64 0, i32 0, i64 2), ptr %this, align 8
  %plugin_ = getelementptr inbounds i8, ptr %this, i64 24
  call void @llvm.memcpy.p0.p0.i64(ptr noundef nonnull align 8 dereferenceable(40) %plugin_, ptr noundef nonnull align 8 dereferenceable(40) %plugin, i64 40, i1 false)
  ret void
}